target datalayout = "e-m:e-p270:32:32-p271:32:32-p272:64:64-i64:64-i128:128-f80:128-n8:16:32:64-S128"
target triple = "x86_64-pc-linux-gnu"

@.str.3 = private unnamed_addr constant [4 x i8] c"foo\00", align 1
@.str.4 = private unnamed_addr constant [4 x i8] c"bar\00", align 1
@.str.5 = private unnamed_addr constant [4 x i8] c"baz\00", align 1

; Function Attrs: inlinehint nounwind uwtable
define internal void @Py_DECREF(ptr noundef %0) #3 {
  %2 = alloca ptr, align 8
  store ptr %0, ptr %2, align 8, !tbaa !3
  %3 = load ptr, ptr %2, align 8, !tbaa !3
  call void @_Py_DecRef(ptr noundef %3)
  ret void
}

; Function Attrs: inlinehint nounwind uwtable
define internal void @Py_XDECREF(ptr noundef %0) #3 {
  %2 = alloca ptr, align 8
  store ptr %0, ptr %2, align 8, !tbaa !3
  %3 = load ptr, ptr %2, align 8, !tbaa !3
  %4 = icmp ne ptr %3, null
  br i1 %4, label %5, label %7

5:                                                ; preds = %1
  %6 = load ptr, ptr %2, align 8, !tbaa !3
  call void @Py_DECREF(ptr noundef %6)
  br label %7

7:                                                ; preds = %5, %1
  ret void
}

; Function Attrs: nounwind uwtable
define internal ptr @_testlimitedcapi_call_vectorcall(ptr noundef %0, ptr noundef %1) #0 {
  %3 = alloca ptr, align 8
  %4 = alloca ptr, align 8
  %5 = alloca [3 x ptr], align 16
  %6 = alloca ptr, align 8
  %7 = alloca ptr, align 8
  %8 = alloca ptr, align 8
  store ptr %0, ptr %3, align 8, !tbaa !3
  store ptr %1, ptr %4, align 8, !tbaa !3
  call void @llvm.lifetime.start.p0(i64 24, ptr %5) #5
  call void @llvm.memset.p0.i64(ptr align 16 %5, i8 0, i64 24, i1 false)
  call void @llvm.lifetime.start.p0(i64 8, ptr %6) #5
  store ptr null, ptr %6, align 8, !tbaa !3
  call void @llvm.lifetime.start.p0(i64 8, ptr %7) #5
  store ptr null, ptr %7, align 8, !tbaa !3
  call void @llvm.lifetime.start.p0(i64 8, ptr %8) #5
  store ptr null, ptr %8, align 8, !tbaa !3
  %9 = call ptr @PyUnicode_FromString(ptr noundef @.str.3)
  %10 = getelementptr [3 x ptr], ptr %5, i64 0, i64 1
  store ptr %9, ptr %10, align 8, !tbaa !3
  %11 = getelementptr [3 x ptr], ptr %5, i64 0, i64 1
  %12 = load ptr, ptr %11, align 8, !tbaa !3
  %13 = icmp ne ptr %12, null
  br i1 %13, label %15, label %14

14:                                               ; preds = %2
  br label %44

15:                                               ; preds = %2
  %16 = call ptr @PyUnicode_FromString(ptr noundef @.str.4)
  %17 = getelementptr [3 x ptr], ptr %5, i64 0, i64 2
  store ptr %16, ptr %17, align 16, !tbaa !3
  %18 = getelementptr [3 x ptr], ptr %5, i64 0, i64 2
  %19 = load ptr, ptr %18, align 16, !tbaa !3
  %20 = icmp ne ptr %19, null
  br i1 %20, label %22, label %21

21:                                               ; preds = %15
  br label %44

22:                                               ; preds = %15
  %23 = call ptr @PyUnicode_InternFromString(ptr noundef @.str.5)
  store ptr %23, ptr %6, align 8, !tbaa !3
  %24 = load ptr, ptr %6, align 8, !tbaa !3
  %25 = icmp ne ptr %24, null
  br i1 %25, label %27, label %26

26:                                               ; preds = %22
  br label %44

27:                                               ; preds = %22
  %28 = call ptr @PyTuple_New(i64 noundef 1)
  store ptr %28, ptr %7, align 8, !tbaa !3
  %29 = load ptr, ptr %7, align 8, !tbaa !3
  %30 = icmp ne ptr %29, null
  br i1 %30, label %32, label %31

31:                                               ; preds = %27
  br label %44

32:                                               ; preds = %27
  %33 = load ptr, ptr %7, align 8, !tbaa !3
  %34 = load ptr, ptr %6, align 8, !tbaa !3
  %35 = call i32 @PyTuple_SetItem(ptr noundef %33, i64 noundef 0, ptr noundef %34)
  %36 = icmp ne i32 %35, 0
  br i1 %36, label %37, label %38

37:                                               ; preds = %32
  br label %44

38:                                               ; preds = %32
  %39 = load ptr, ptr %4, align 8, !tbaa !3
  %40 = getelementptr inbounds [3 x ptr], ptr %5, i64 0, i64 0
  %41 = getelementptr ptr, ptr %40, i64 1
  %42 = load ptr, ptr %7, align 8, !tbaa !3
  %43 = call ptr @PyObject_Vectorcall(ptr noundef %39, ptr noundef %41, i64 noundef -9223372036854775807, ptr noundef %42)
  store ptr %43, ptr %8, align 8, !tbaa !3
  br label %44

44:                                               ; preds = %38, %37, %31, %26, %21, %14
  %45 = getelementptr [3 x ptr], ptr %5, i64 0, i64 1
  %46 = load ptr, ptr %45, align 8, !tbaa !3
  call void @Py_XDECREF(ptr noundef %46)
  %47 = getelementptr [3 x ptr], ptr %5, i64 0, i64 2
  %48 = load ptr, ptr %47, align 16, !tbaa !3
  call void @Py_XDECREF(ptr noundef %48)
  %49 = load ptr, ptr %7, align 8, !tbaa !3
  call void @Py_XDECREF(ptr noundef %49)
  %50 = load ptr, ptr %8, align 8, !tbaa !3
  call void @llvm.lifetime.end.p0(i64 8, ptr %8) #5
  call void @llvm.lifetime.end.p0(i64 8, ptr %7) #5
  call void @llvm.lifetime.end.p0(i64 8, ptr %6) #5
  call void @llvm.lifetime.end.p0(i64 24, ptr %5) #5
  ret ptr %50
}