; Function Attrs: nounwind uwtable
define internal ptr @_testlimitedcapi_call_vectorcall(ptr readnone captures(none) %0, ptr noundef %1) #0 {
  %3 = alloca [3 x ptr], align 16
  call void @llvm.lifetime.start.p0(i64 24, ptr nonnull %3) #4
  call void @llvm.memset.p0.i64(ptr noundef nonnull align 16 dereferenceable(24) %3, i8 0, i64 24, i1 false)
  %4 = tail call ptr @PyUnicode_FromString(ptr noundef nonnull @.str.3) #4
  %5 = getelementptr inbounds nuw i8, ptr %3, i64 8
  store ptr %4, ptr %5, align 8, !tbaa !3
  %.not = icmp eq ptr %4, null
  br i1 %.not, label %Py_XDECREF.exit, label %6

6:                                                ; preds = %2
  %7 = tail call ptr @PyUnicode_FromString(ptr noundef nonnull @.str.4) #4
  %8 = getelementptr inbounds nuw i8, ptr %3, i64 16
  store ptr %7, ptr %8, align 16, !tbaa !3
  %.not11 = icmp eq ptr %7, null
  br i1 %.not11, label %.thread, label %9

9:                                                ; preds = %6
  %10 = tail call ptr @PyUnicode_InternFromString(ptr noundef nonnull @.str.5) #4
  %.not12 = icmp eq ptr %10, null
  br i1 %.not12, label %.thread, label %11

11:                                               ; preds = %9
  %12 = tail call ptr @PyTuple_New(i64 noundef 1) #4
  %.not13 = icmp eq ptr %12, null
  br i1 %.not13, label %.thread, label %13

13:                                               ; preds = %11
  %14 = tail call i32 @PyTuple_SetItem(ptr noundef nonnull %12, i64 noundef 0, ptr noundef nonnull %10) #4
  %.not14 = icmp eq i32 %14, 0
  br i1 %.not14, label %15, label %.thread

15:                                               ; preds = %13
  %16 = call ptr @PyObject_Vectorcall(ptr noundef %1, ptr noundef nonnull %5, i64 noundef -9223372036854775807, ptr noundef nonnull %12) #4
  %.pr.pre = load ptr, ptr %5, align 8, !tbaa !3
  %.not.i = icmp eq ptr %.pr.pre, null
  br i1 %.not.i, label %Py_XDECREF.exit, label %.thread

.thread:                                          ; preds = %13, %11, %9, %6, %15
  %.0.ph31 = phi ptr [ %16, %15 ], [ null, %6 ], [ null, %9 ], [ null, %11 ], [ null, %13 ]
  %.08.ph30 = phi ptr [ %12, %15 ], [ null, %6 ], [ null, %9 ], [ null, %11 ], [ %12, %13 ]
  %.pr29 = phi ptr [ %.pr.pre, %15 ], [ %4, %6 ], [ %4, %9 ], [ %4, %11 ], [ %4, %13 ]
  call void @_Py_DecRef(ptr noundef nonnull %.pr29) #4
  br label %Py_XDECREF.exit

Py_XDECREF.exit:                                  ; preds = %2, %15, %.thread
  %.023 = phi ptr [ %16, %15 ], [ %.0.ph31, %.thread ], [ null, %2 ]
  %.0822 = phi ptr [ %12, %15 ], [ %.08.ph30, %.thread ], [ null, %2 ]
  %17 = getelementptr inbounds nuw i8, ptr %3, i64 16
  %18 = load ptr, ptr %17, align 16, !tbaa !3
  %.not.i15 = icmp eq ptr %18, null
  br i1 %.not.i15, label %Py_XDECREF.exit16, label %19

19:                                               ; preds = %Py_XDECREF.exit
  call void @_Py_DecRef(ptr noundef nonnull %18) #4
  br label %Py_XDECREF.exit16

Py_XDECREF.exit16:                                ; preds = %Py_XDECREF.exit, %19
  %.not.i17 = icmp eq ptr %.0822, null
  br i1 %.not.i17, label %Py_XDECREF.exit18, label %20

20:                                               ; preds = %Py_XDECREF.exit16
  call void @_Py_DecRef(ptr noundef nonnull %.0822) #4
  br label %Py_XDECREF.exit18

Py_XDECREF.exit18:                                ; preds = %Py_XDECREF.exit16, %20
  call void @llvm.lifetime.end.p0(i64 24, ptr nonnull %3) #4
  ret ptr %.023
}